target datalayout = "e-m:e-p270:32:32-p271:32:32-p272:64:64-i64:64-i128:128-f80:128-n8:16:32:64-S128"
target triple = "x86_64-pc-linux-gnu"

%struct.AVFilterContext = type { ptr, ptr, ptr, ptr, ptr, i32, ptr, ptr, i32, ptr, ptr, i32, i32, ptr, ptr, ptr, ptr, i32, ptr, i32, i32 }
%struct.CellAutoContext = type { ptr, i32, i32, ptr, ptr, ptr, i64, ptr, i32, i32, i8, i64, %struct.AVRational, double, i64, i32, i32, i32, i64, %struct.AVLFG, ptr }
%struct.AVRational = type { i32, i32 }
%struct.AVLFG = type { [64 x i32], i32 }

; Function Attrs: cold nounwind optsize uwtable
define internal void @uninit(ptr noundef %0) #0 {
  %2 = alloca ptr, align 8
  %3 = alloca ptr, align 8
  store ptr %0, ptr %2, align 8, !tbaa !4
  call void @llvm.lifetime.start.p0(i64 8, ptr %3) #9
  %4 = load ptr, ptr %2, align 8, !tbaa !4
  %5 = getelementptr inbounds nuw %struct.AVFilterContext, ptr %4, i32 0, i32 9
  %6 = load ptr, ptr %5, align 8, !tbaa !9
  store ptr %6, ptr %3, align 8, !tbaa !22
  %7 = load ptr, ptr %3, align 8, !tbaa !22
  %8 = getelementptr inbounds nuw %struct.CellAutoContext, ptr %7, i32 0, i32 5
  %9 = load ptr, ptr %8, align 8, !tbaa !47
  %10 = load ptr, ptr %3, align 8, !tbaa !22
  %11 = getelementptr inbounds nuw %struct.CellAutoContext, ptr %10, i32 0, i32 6
  %12 = load i64, ptr %11, align 8, !tbaa !48
  call void @av_file_unmap(ptr noundef %9, i64 noundef %12)
  %13 = load ptr, ptr %3, align 8, !tbaa !22
  %14 = getelementptr inbounds nuw %struct.CellAutoContext, ptr %13, i32 0, i32 7
  call void @av_freep(ptr noundef %14)
  %15 = load ptr, ptr %3, align 8, !tbaa !22
  %16 = getelementptr inbounds nuw %struct.CellAutoContext, ptr %15, i32 0, i32 20
  call void @av_freep(ptr noundef %16)
  call void @llvm.lifetime.end.p0(i64 8, ptr %3) #9
  ret void
}